target datalayout = "e-m:e-p270:32:32-p271:32:32-p272:64:64-i64:64-i128:128-f80:128-n8:16:32:64-S128"
target triple = "x86_64-pc-linux-gnu"

%struct.CVodeMemRec = type { ptr, double, ptr, ptr, i32, i32, double, double, ptr, i32, i32, ptr, ptr, i32, [13 x ptr], ptr, ptr, ptr, ptr, ptr, ptr, ptr, ptr, ptr, i32, i32, double, i32, i32, i32, i32, i32, double, double, double, double, double, double, double, double, [14 x double], [6 x double], [13 x double], double, double, double, double, double, double, double, i32, double, i32, i64, i32, i32, i32, double, double, double, double, double, double, double, double, double, double, double, double, i64, i32, i64, i64, i64, i64, i64, i64, i64, i32, double, double, double, i64, i64, i64, i64, ptr, i32, ptr, i32, ptr, ptr, ptr, ptr, ptr, i64, double, i32, i64, double, double, double, i32, double, i32, i32, i32, i32, i32, ptr, i64, i32, [6 x [4 x double]], i32, i64, ptr, i32, ptr, ptr, double, double, double, ptr, ptr, ptr, double, double, i32, i32, i64, ptr, i32, ptr, i32, i32, [13 x double], [13 x double], [13 x ptr], i32 }
%struct.CVBandPrecDataRec = type { i64, i64, i64, ptr, ptr, ptr, ptr, ptr, i64, ptr }
%struct.CVLsMemRec = type { i32, i32, i32, ptr, ptr, i32, double, i32, double, double, ptr, ptr, ptr, ptr, ptr, ptr, ptr, i64, i64, i64, i64, i64, i64, i64, i64, i64, i64, double, ptr, ptr, ptr, ptr, i32, ptr, ptr, ptr, ptr, i32, ptr, ptr, i32 }

; Function Attrs: nounwind uwtable
define internal i32 @CVBandPrecFree(ptr noundef %0) #0 {
  %2 = alloca i32, align 4
  %3 = alloca ptr, align 8
  %4 = alloca ptr, align 8
  %5 = alloca ptr, align 8
  %6 = alloca i32, align 4
  store ptr %0, ptr %3, align 8, !tbaa !9
  call void @llvm.lifetime.start.p0(i64 8, ptr %4) #6
  call void @llvm.lifetime.start.p0(i64 8, ptr %5) #6
  %7 = load ptr, ptr %3, align 8, !tbaa !9
  %8 = getelementptr inbounds nuw %struct.CVodeMemRec, ptr %7, i32 0, i32 94
  %9 = load ptr, ptr %8, align 8, !tbaa !11
  %10 = icmp eq ptr %9, null
  br i1 %10, label %11, label %12

11:                                               ; preds = %1
  store i32 0, ptr %2, align 4
  store i32 1, ptr %6, align 4
  br label %42

12:                                               ; preds = %1
  %13 = load ptr, ptr %3, align 8, !tbaa !9
  %14 = getelementptr inbounds nuw %struct.CVodeMemRec, ptr %13, i32 0, i32 94
  %15 = load ptr, ptr %14, align 8, !tbaa !11
  store ptr %15, ptr %4, align 8, !tbaa !21
  %16 = load ptr, ptr %4, align 8, !tbaa !21
  %17 = getelementptr inbounds nuw %struct.CVLsMemRec, ptr %16, i32 0, i32 31
  %18 = load ptr, ptr %17, align 8, !tbaa !48
  %19 = icmp eq ptr %18, null
  br i1 %19, label %20, label %21

20:                                               ; preds = %12
  store i32 0, ptr %2, align 4
  store i32 1, ptr %6, align 4
  br label %42

21:                                               ; preds = %12
  %22 = load ptr, ptr %4, align 8, !tbaa !21
  %23 = getelementptr inbounds nuw %struct.CVLsMemRec, ptr %22, i32 0, i32 31
  %24 = load ptr, ptr %23, align 8, !tbaa !48
  store ptr %24, ptr %5, align 8, !tbaa !29
  %25 = load ptr, ptr %5, align 8, !tbaa !29
  %26 = getelementptr inbounds nuw %struct.CVBandPrecDataRec, ptr %25, i32 0, i32 5
  %27 = load ptr, ptr %26, align 8, !tbaa !42
  %28 = call i32 @SUNLinSolFree(ptr noundef %27)
  %29 = load ptr, ptr %5, align 8, !tbaa !29
  %30 = getelementptr inbounds nuw %struct.CVBandPrecDataRec, ptr %29, i32 0, i32 4
  %31 = load ptr, ptr %30, align 8, !tbaa !41
  call void @SUNMatDestroy(ptr noundef %31)
  %32 = load ptr, ptr %5, align 8, !tbaa !29
  %33 = getelementptr inbounds nuw %struct.CVBandPrecDataRec, ptr %32, i32 0, i32 3
  %34 = load ptr, ptr %33, align 8, !tbaa !39
  call void @SUNMatDestroy(ptr noundef %34)
  %35 = load ptr, ptr %5, align 8, !tbaa !29
  %36 = getelementptr inbounds nuw %struct.CVBandPrecDataRec, ptr %35, i32 0, i32 6
  %37 = load ptr, ptr %36, align 8, !tbaa !43
  call void @N_VDestroy(ptr noundef %37)
  %38 = load ptr, ptr %5, align 8, !tbaa !29
  %39 = getelementptr inbounds nuw %struct.CVBandPrecDataRec, ptr %38, i32 0, i32 7
  %40 = load ptr, ptr %39, align 8, !tbaa !44
  call void @N_VDestroy(ptr noundef %40)
  %41 = load ptr, ptr %5, align 8, !tbaa !29
  call void @free(ptr noundef %41) #6
  store ptr null, ptr %5, align 8, !tbaa !29
  store i32 0, ptr %2, align 4
  store i32 1, ptr %6, align 4
  br label %42

42:                                               ; preds = %21, %20, %11
  call void @llvm.lifetime.end.p0(i64 8, ptr %5) #6
  call void @llvm.lifetime.end.p0(i64 8, ptr %4) #6
  %43 = load i32, ptr %2, align 4
  ret i32 %43
}